#include <math.h>
#include <stdio.h>
#include <stdlib.h>
#include <string.h>

void main()
{   
	int n,i,k;
	char c[32]="\0";
    scanf("%d",&n);
	for(i=1;i<=n;i++)
	{   
		
		scanf("%s",c);
		char o[32]="\0";
		k=strlen(c);char v[32]="\0";
		strncpy(v,c,k-3); strcat(v,"ing"); 
		if(strcmp(v,c)==0) {strncpy(o,c,k-3);printf("%s\n",o);}
		else {strncpy(o,c,k-2);printf("%s\n",o);}
    }
}


 
 
 
