; ModuleID = 'source-C-CXX/56/507.c'
source_filename = "source-C-CXX/56/507.c"
target datalayout = "e-m:e-p270:32:32-p271:32:32-p272:64:64-i64:64-f80:128-n8:16:32:64-S128"
target triple = "x86_64-pc-linux-gnu"

@.str = private unnamed_addr constant [3 x i8] c"%d\00", align 1
@.str.1 = private unnamed_addr constant [3 x i8] c"%s\00", align 1

; Function Attrs: nofree nounwind sspstrong uwtable
define dso_local void @main() local_unnamed_addr #0 {
  %1 = alloca i32, align 4
  %2 = alloca [32 x i8], align 16
  %3 = alloca [32 x i8], align 16
  %4 = alloca [32 x i8], align 16
  %5 = bitcast i32* %1 to i8*
  call void @llvm.lifetime.start.p0i8(i64 4, i8* nonnull %5) #7
  %6 = getelementptr inbounds [32 x i8], [32 x i8]* %2, i64 0, i64 0
  call void @llvm.lifetime.start.p0i8(i64 32, i8* nonnull %6) #7
  call void @llvm.memset.p0i8.i64(i8* noundef nonnull align 16 dereferenceable(32) %6, i8 0, i64 32, i1 false)
  %7 = call i32 (i8*, ...) @__isoc99_scanf(i8* getelementptr inbounds ([3 x i8], [3 x i8]* @.str, i64 0, i64 0), i32* nonnull %1)
  %8 = getelementptr inbounds [32 x i8], [32 x i8]* %3, i64 0, i64 0
  %9 = getelementptr inbounds [32 x i8], [32 x i8]* %4, i64 0, i64 0
  %10 = load i32, i32* %1, align 4, !tbaa !5
  %11 = icmp slt i32 %10, 1
  br i1 %11, label %33, label %12

12:                                               ; preds = %0, %12
  %13 = phi i32 [ %30, %12 ], [ 1, %0 ]
  %14 = call i32 (i8*, ...) @__isoc99_scanf(i8* getelementptr inbounds ([3 x i8], [3 x i8]* @.str.1, i64 0, i64 0), i8* nonnull %6)
  call void @llvm.lifetime.start.p0i8(i64 32, i8* nonnull %8) #7
  call void @llvm.memset.p0i8.i64(i8* noundef nonnull align 16 dereferenceable(32) %8, i8 0, i64 32, i1 false)
  %15 = call i64 @strlen(i8* noundef nonnull %6) #8
  call void @llvm.lifetime.start.p0i8(i64 32, i8* nonnull %9) #7
  call void @llvm.memset.p0i8.i64(i8* noundef nonnull align 16 dereferenceable(32) %9, i8 0, i64 32, i1 false)
  %16 = shl i64 %15, 32
  %17 = add i64 %16, -12884901888
  %18 = ashr exact i64 %17, 32
  %19 = call i8* @strncpy(i8* noundef nonnull %9, i8* nonnull %6, i64 %18) #7
  %20 = call i64 @strlen(i8* noundef nonnull %9)
  %21 = getelementptr [32 x i8], [32 x i8]* %4, i64 0, i64 %20
  %22 = bitcast i8* %21 to i32*
  store i32 6778473, i32* %22, align 1
  %23 = call i32 @strcmp(i8* noundef nonnull %9, i8* noundef nonnull %6) #8
  %24 = icmp eq i32 %23, 0
  %25 = add i64 %16, -8589934592
  %26 = ashr exact i64 %25, 32
  %27 = select i1 %24, i64 %18, i64 %26
  %28 = call i8* @strncpy(i8* noundef nonnull %8, i8* nonnull %6, i64 %27) #7
  %29 = call i32 @puts(i8* nonnull %8)
  call void @llvm.lifetime.end.p0i8(i64 32, i8* nonnull %9) #7
  call void @llvm.lifetime.end.p0i8(i64 32, i8* nonnull %8) #7
  %30 = add nuw nsw i32 %13, 1
  %31 = load i32, i32* %1, align 4, !tbaa !5
  %32 = icmp slt i32 %13, %31
  br i1 %32, label %12, label %33, !llvm.loop !9

33:                                               ; preds = %12, %0
  call void @llvm.lifetime.end.p0i8(i64 32, i8* nonnull %6) #7
  call void @llvm.lifetime.end.p0i8(i64 4, i8* nonnull %5) #7
  ret void
}

; Function Attrs: argmemonly mustprogress nofree nosync nounwind willreturn
declare void @llvm.lifetime.start.p0i8(i64 immarg, i8* nocapture) #1

; Function Attrs: argmemonly mustprogress nofree nounwind willreturn writeonly
declare void @llvm.memset.p0i8.i64(i8* nocapture writeonly, i8, i64, i1 immarg) #2

; Function Attrs: nofree nounwind
declare noundef i32 @__isoc99_scanf(i8* nocapture noundef readonly, ...) local_unnamed_addr #3

; Function Attrs: argmemonly mustprogress nofree nounwind readonly willreturn
declare i64 @strlen(i8* nocapture) local_unnamed_addr #4

; Function Attrs: argmemonly mustprogress nofree nounwind willreturn
declare i8* @strncpy(i8* noalias returned writeonly, i8* noalias nocapture readonly, i64) local_unnamed_addr #5

; Function Attrs: argmemonly mustprogress nofree nounwind readonly willreturn
declare i32 @strcmp(i8* nocapture, i8* nocapture) local_unnamed_addr #4

; Function Attrs: argmemonly mustprogress nofree nosync nounwind willreturn
declare void @llvm.lifetime.end.p0i8(i64 immarg, i8* nocapture) #1

; Function Attrs: nofree nounwind
declare noundef i32 @puts(i8* nocapture noundef readonly) local_unnamed_addr #6


!llvm.module.flags = !{!0, !1, !2, !3}
!llvm.ident = !{!4}

!0 = !{i32 1, !"wchar_size", i32 4}
!1 = !{i32 7, !"PIC Level", i32 2}
!2 = !{i32 7, !"PIE Level", i32 2}
!3 = !{i32 7, !"uwtable", i32 1}
!4 = !{!"clang version 13.0.0"}
!5 = !{!6, !6, i64 0}
!6 = !{!"int", !7, i64 0}
!7 = !{!"omnipotent char", !8, i64 0}
!8 = !{!"Simple C/C++ TBAA"}
!9 = distinct !{!9, !10}
!10 = !{!"llvm.loop.mustprogress"}
